; Function Attrs: mustprogress uwtable
define void @_ZNK32pxrInternal_v0_24__pxrReserved__11NdrProperty13GetInfoStringB5cxx11Ev(ptr dead_on_unwind noalias writable sret(%"class.std::__cxx11::basic_string") align 8 %0, ptr nocapture noundef nonnull readonly align 8 dereferenceable(120) %1) unnamed_addr #0 align 2 personality ptr @__gxx_personality_v0 {
  %3 = getelementptr inbounds nuw i8, ptr %1, i64 8
  %4 = load ptr, ptr %3, align 8
  %5 = ptrtoint ptr %4 to i64
  %6 = and i64 %5, -8
  %.not.i = icmp eq i64 %6, 0
  br i1 %.not.i, label %_ZNK32pxrInternal_v0_24__pxrReserved__7TfToken7GetTextEv.exit, label %7

7:                                                ; preds = %2
  %8 = inttoptr i64 %6 to ptr
  %9 = getelementptr inbounds nuw i8, ptr %8, i64 16
  %10 = tail call noundef ptr @_ZNKSt7__cxx1112basic_stringIcSt11char_traitsIcESaIcEE5c_strEv(ptr noundef nonnull align 8 dereferenceable(32) %9) #16
  br label %_ZNK32pxrInternal_v0_24__pxrReserved__7TfToken7GetTextEv.exit

_ZNK32pxrInternal_v0_24__pxrReserved__7TfToken7GetTextEv.exit: ; preds = %2, %7
  %11 = phi ptr [ %10, %7 ], [ @.str.3, %2 ]
  %12 = getelementptr inbounds nuw i8, ptr %1, i64 16
  %13 = load ptr, ptr %12, align 8
  %14 = ptrtoint ptr %13 to i64
  %15 = and i64 %14, -8
  %.not.i1 = icmp eq i64 %15, 0
  br i1 %.not.i1, label %_ZNK32pxrInternal_v0_24__pxrReserved__7TfToken7GetTextEv.exit2, label %16

16:                                               ; preds = %_ZNK32pxrInternal_v0_24__pxrReserved__7TfToken7GetTextEv.exit
  %17 = inttoptr i64 %15 to ptr
  %18 = getelementptr inbounds nuw i8, ptr %17, i64 16
  %19 = tail call noundef ptr @_ZNKSt7__cxx1112basic_stringIcSt11char_traitsIcESaIcEE5c_strEv(ptr noundef nonnull align 8 dereferenceable(32) %18) #16
  br label %_ZNK32pxrInternal_v0_24__pxrReserved__7TfToken7GetTextEv.exit2

_ZNK32pxrInternal_v0_24__pxrReserved__7TfToken7GetTextEv.exit2: ; preds = %_ZNK32pxrInternal_v0_24__pxrReserved__7TfToken7GetTextEv.exit, %16
  %20 = phi ptr [ %19, %16 ], [ @.str.3, %_ZNK32pxrInternal_v0_24__pxrReserved__7TfToken7GetTextEv.exit ]
  %21 = getelementptr inbounds nuw i8, ptr %1, i64 40
  %22 = load i8, ptr %21, align 8
  %23 = trunc i8 %22 to i1
  %24 = select i1 %23, ptr @.str.1, ptr @.str.2
  tail call void (ptr, ptr, ...) @_ZN32pxrInternal_v0_24__pxrReserved__14TfStringPrintfB5cxx11EPKcz(ptr dead_on_unwind writable sret(%"class.std::__cxx11::basic_string") align 8 %0, ptr noundef nonnull @.str, ptr noundef %11, ptr noundef %20, ptr noundef nonnull %24)
  ret void
}